target datalayout = "e-m:e-p270:32:32-p271:32:32-p272:64:64-i64:64-i128:128-f80:128-n8:16:32:64-S128"
target triple = "x86_64-pc-linux-gnu"

%struct.lean_object = type { i32, i32 }

@_ZN4leanL11g_cancel_tkE = internal thread_local(localexec) global ptr null, align 8
@_ZTIN4lean11interruptedE = linkonce_odr constant { ptr, ptr } { ptr getelementptr inbounds (ptr, ptr @_ZTVN10__cxxabiv117__class_type_infoE, i64 2), ptr @_ZTSN4lean11interruptedE }, comdat, align 8
@_ZTVN4lean11interruptedE = linkonce_odr unnamed_addr constant { [5 x ptr] } { [5 x ptr] [ptr null, ptr @_ZTIN4lean11interruptedE, ptr @_ZN4lean11interruptedD2Ev, ptr @_ZN4lean11interruptedD0Ev, ptr @_ZNK4lean11interrupted4whatEv] }, comdat, align 8

; Function Attrs: inlinehint mustprogress nounwind uwtable
define internal noundef zeroext i1 @_ZL10lean_is_stP11lean_object(ptr noundef %0) #10 {
  %2 = alloca ptr, align 8
  store ptr %0, ptr %2, align 8, !tbaa !27
  %3 = load ptr, ptr %2, align 8, !tbaa !27
  %4 = getelementptr inbounds nuw %struct.lean_object, ptr %3, i32 0, i32 0
  %5 = load i32, ptr %4, align 4, !tbaa !73
  %6 = icmp sgt i32 %5, 0
  ret i1 %6
}

; Function Attrs: inlinehint mustprogress nounwind uwtable
define internal noundef ptr @_ZL8lean_boxm(i64 noundef %0) #10 {
  %2 = alloca i64, align 8
  store i64 %0, ptr %2, align 8, !tbaa !3
  %3 = load i64, ptr %2, align 8, !tbaa !3
  %4 = shl i64 %3, 1
  %5 = or i64 %4, 1
  %6 = inttoptr i64 %5 to ptr
  ret ptr %6
}

; Function Attrs: inlinehint mustprogress uwtable
define internal void @_ZL12lean_inc_refP11lean_object(ptr noundef %0) #3 {
  %2 = alloca ptr, align 8
  store ptr %0, ptr %2, align 8, !tbaa !27
  %3 = load ptr, ptr %2, align 8, !tbaa !27
  %4 = call noundef zeroext i1 @_ZL10lean_is_stP11lean_object(ptr noundef %3)
  %5 = zext i1 %4 to i64
  %6 = call i64 @llvm.expect.i64(i64 %5, i64 1)
  %7 = icmp ne i64 %6, 0
  br i1 %7, label %8, label %13

8:                                                ; preds = %1
  %9 = load ptr, ptr %2, align 8, !tbaa !27
  %10 = getelementptr inbounds nuw %struct.lean_object, ptr %9, i32 0, i32 0
  %11 = load i32, ptr %10, align 4, !tbaa !73
  %12 = add nsw i32 %11, 1
  store i32 %12, ptr %10, align 4, !tbaa !73
  br label %21

13:                                               ; preds = %1
  %14 = load ptr, ptr %2, align 8, !tbaa !27
  %15 = getelementptr inbounds nuw %struct.lean_object, ptr %14, i32 0, i32 0
  %16 = load i32, ptr %15, align 4, !tbaa !73
  %17 = icmp ne i32 %16, 0
  br i1 %17, label %18, label %20

18:                                               ; preds = %13
  %19 = load ptr, ptr %2, align 8, !tbaa !27
  call void @lean_inc_ref_cold(ptr noundef %19)
  br label %20

20:                                               ; preds = %18, %13
  br label %21

21:                                               ; preds = %20, %8
  ret void
}

; Function Attrs: mustprogress nounwind uwtable
define linkonce_odr hidden void @_ZN4lean11interruptedC2Ev(ptr noundef nonnull align 8 dereferenceable(8) %0) unnamed_addr #0 comdat align 2 {
  %2 = alloca ptr, align 8
  store ptr %0, ptr %2, align 8, !tbaa !39
  %3 = load ptr, ptr %2, align 8
  store ptr getelementptr inbounds inrange(-16, 24) ({ [5 x ptr] }, ptr @_ZTVN4lean11interruptedE, i32 0, i32 0, i32 2), ptr %3, align 8, !tbaa !23
  ret void
}

; Function Attrs: inlinehint mustprogress uwtable
define internal noundef ptr @_ZL16lean_io_mk_worldv() #3 {
  %1 = call noundef ptr @_ZL8lean_boxm(i64 noundef 0)
  ret ptr %1
}

; Function Attrs: inlinehint mustprogress uwtable
define linkonce_odr hidden void @_ZN4lean7inc_refEP11lean_object(ptr noundef %0) #3 comdat {
  %2 = alloca ptr, align 8
  store ptr %0, ptr %2, align 8, !tbaa !27
  %3 = load ptr, ptr %2, align 8, !tbaa !27
  call void @_ZL12lean_inc_refP11lean_object(ptr noundef %3)
  ret void
}

; Function Attrs: mustprogress uwtable
define void @_ZN4lean17check_interruptedEv() #2 personality ptr @__gxx_personality_v0 {
  %1 = alloca ptr, align 8
  %2 = alloca i32, align 4
  %3 = call align 8 ptr @llvm.threadlocal.address.p0(ptr align 8 @_ZN4leanL11g_cancel_tkE)
  %4 = load ptr, ptr %3, align 8, !tbaa !27
  %5 = icmp ne ptr %4, null
  br i1 %5, label %6, label %24

6:                                                ; preds = %0
  %7 = call align 8 ptr @llvm.threadlocal.address.p0(ptr align 8 @_ZN4leanL11g_cancel_tkE)
  %8 = load ptr, ptr %7, align 8, !tbaa !27
  call void @_ZN4lean7inc_refEP11lean_object(ptr noundef %8)
  %9 = call align 8 ptr @llvm.threadlocal.address.p0(ptr align 8 @_ZN4leanL11g_cancel_tkE)
  %10 = load ptr, ptr %9, align 8, !tbaa !27
  %11 = call noundef ptr @_ZL16lean_io_mk_worldv()
  %12 = call ptr @lean_io_cancel_token_is_set(ptr noundef %10, ptr noundef %11)
  %13 = call noundef zeroext i1 @_ZN4lean20get_io_scalar_resultIbEET_P11lean_object(ptr noundef %12)
  br i1 %13, label %14, label %23

14:                                               ; preds = %6
  %15 = call noundef zeroext i1 @_ZSt18uncaught_exceptionv() #19
  br i1 %15, label %23, label %16

16:                                               ; preds = %14
  %17 = call ptr @__cxa_allocate_exception(i64 8) #17
  invoke void @_ZN4lean11interruptedC2Ev(ptr noundef nonnull align 8 dereferenceable(8) %17)
          to label %18 unwind label %19

18:                                               ; preds = %16
  call void @__cxa_throw(ptr %17, ptr @_ZTIN4lean11interruptedE, ptr @_ZN4lean11interruptedD2Ev) #18
  unreachable

19:                                               ; preds = %16
  %20 = landingpad { ptr, i32 }
          cleanup
  %21 = extractvalue { ptr, i32 } %20, 0
  store ptr %21, ptr %1, align 8
  %22 = extractvalue { ptr, i32 } %20, 1
  store i32 %22, ptr %2, align 4
  call void @__cxa_free_exception(ptr %17) #17
  br label %25

23:                                               ; preds = %14, %6
  br label %24

24:                                               ; preds = %23, %0
  ret void

25:                                               ; preds = %19
  %26 = load ptr, ptr %1, align 8
  %27 = load i32, ptr %2, align 4
  %28 = insertvalue { ptr, i32 } poison, ptr %26, 0
  %29 = insertvalue { ptr, i32 } %28, i32 %27, 1
  resume { ptr, i32 } %29
}