; Function Attrs: mustprogress uwtable
define void @_ZN4lean17check_interruptedEv() local_unnamed_addr #7 personality ptr @__gxx_personality_v0 {
  %1 = tail call align 8 ptr @llvm.threadlocal.address.p0(ptr align 8 @_ZN4leanL11g_cancel_tkE)
  %2 = load ptr, ptr %1, align 8, !tbaa !22
  %.not = icmp eq ptr %2, null
  br i1 %.not, label %16, label %3

3:                                                ; preds = %0
  %.val.i.i = load i32, ptr %2, align 4, !tbaa !25
  %4 = icmp sgt i32 %.val.i.i, 0
  br i1 %4, label %5, label %7, !prof !28

5:                                                ; preds = %3
  %6 = add nuw nsw i32 %.val.i.i, 1
  store i32 %6, ptr %2, align 4, !tbaa !25
  br label %_ZN4lean7inc_refEP11lean_object.exit

7:                                                ; preds = %3
  %.not.i.i = icmp eq i32 %.val.i.i, 0
  br i1 %.not.i.i, label %_ZN4lean7inc_refEP11lean_object.exit, label %8

8:                                                ; preds = %7
  tail call void @lean_inc_ref_cold(ptr noundef nonnull %2)
  %.pre = load ptr, ptr %1, align 8, !tbaa !22
  br label %_ZN4lean7inc_refEP11lean_object.exit

_ZN4lean7inc_refEP11lean_object.exit:             ; preds = %5, %7, %8
  %9 = phi ptr [ %2, %5 ], [ %2, %7 ], [ %.pre, %8 ]
  %10 = tail call ptr @lean_io_cancel_token_is_set(ptr noundef %9, ptr noundef nonnull inttoptr (i64 1 to ptr))
  %11 = tail call noundef zeroext i1 @_ZN4lean20get_io_scalar_resultIbEET_P11lean_object(ptr noundef %10)
  br i1 %11, label %12, label %16

12:                                               ; preds = %_ZN4lean7inc_refEP11lean_object.exit
  %13 = tail call noundef zeroext i1 @_ZSt18uncaught_exceptionv() #24
  br i1 %13, label %16, label %14

14:                                               ; preds = %12
  %15 = tail call ptr @__cxa_allocate_exception(i64 8) #22
  store ptr getelementptr inbounds nuw inrange(-16, 24) (i8, ptr @_ZTVN4lean11interruptedE, i64 16), ptr %15, align 8, !tbaa !18
  tail call void @__cxa_throw(ptr nonnull %15, ptr nonnull @_ZTIN4lean11interruptedE, ptr nonnull @_ZN4lean11interruptedD2Ev) #23
  unreachable

16:                                               ; preds = %_ZN4lean7inc_refEP11lean_object.exit, %12, %0
  ret void
}